; Function Attrs: mustprogress nofree norecurse nosync nounwind willreturn memory(argmem: readwrite) uwtable
define dso_local void @_ZN4llvm5APInt10tcClearBitEPmj(ptr noundef captures(none) %0, i32 noundef %1) local_unnamed_addr #15 align 2 {
  %3 = and i32 %1, 63
  %4 = zext nneg i32 %3 to i64
  %5 = shl nuw i64 1, %4
  %6 = xor i64 %5, -1
  %7 = lshr i32 %1, 6
  %8 = zext nneg i32 %7 to i64
  %9 = getelementptr inbounds nuw i64, ptr %0, i64 %8
  %10 = load i64, ptr %9, align 8
  %11 = and i64 %10, %6
  store i64 %11, ptr %9, align 8
  ret void
}